; Function Attrs: uwtable
define void @_ZThn32_NK17FilterIONXSPlugin10filterNameEi(ptr dead_on_unwind noalias nocapture writable writeonly sret(%class.QString) align 8 %0, ptr nocapture noundef readnone %1, i32 noundef %2) unnamed_addr #13 align 2 {
  tail call void @llvm.experimental.noalias.scope.decl(metadata !39)
  switch i32 %2, label %_ZNK17FilterIONXSPlugin10filterNameEi.exit [
    i32 0, label %4
    i32 1, label %6
  ]

4:                                                ; preds = %3
  %5 = tail call noundef ptr @_ZN7QString16fromAscii_helperEPKci(ptr noundef nonnull @.str.20, i32 noundef 9), !noalias !39
  br label %_ZNK17FilterIONXSPlugin10filterNameEi.exit

6:                                                ; preds = %3
  %7 = tail call noundef ptr @_ZN7QString16fromAscii_helperEPKci(ptr noundef nonnull @.str.21, i32 noundef 12), !noalias !39
  br label %_ZNK17FilterIONXSPlugin10filterNameEi.exit

_ZNK17FilterIONXSPlugin10filterNameEi.exit:       ; preds = %3, %4, %6
  %_ZN10QArrayData11shared_nullE.sink.i = phi ptr [ %7, %6 ], [ %5, %4 ], [ @_ZN10QArrayData11shared_nullE, %3 ]
  store ptr %_ZN10QArrayData11shared_nullE.sink.i, ptr %0, align 8, !alias.scope !39
  ret void
}